target datalayout = "e-m:e-p270:32:32-p271:32:32-p272:64:64-i64:64-i128:128-f80:128-n8:16:32:64-S128"
target triple = "x86_64-pc-linux-gnu"

%struct.QTailQLink = type { ptr, ptr }
%struct.DriveInfo = type { i32, i32, i32, i32, i8, i32, ptr, %union.anon.10 }
%union.anon.10 = type { %struct.QTailQLink }

@.str = private unnamed_addr constant [22 x i8] c"qemu_in_main_thread()\00", align 1
@.str.1 = private unnamed_addr constant [19 x i8] c"../qemu/blockdev.c\00", align 1
@__PRETTY_FUNCTION__.drive_get = private unnamed_addr constant [51 x i8] c"DriveInfo *drive_get(BlockInterfaceType, int, int)\00", align 1

; Function Attrs: nounwind sspstrong uwtable
define dso_local ptr @drive_get(i32 noundef %0, i32 noundef %1, i32 noundef %2) #0 {
  %4 = alloca ptr, align 8
  %5 = alloca i32, align 4
  %6 = alloca i32, align 4
  %7 = alloca i32, align 4
  %8 = alloca ptr, align 8
  %9 = alloca ptr, align 8
  %10 = alloca i32, align 4
  store i32 %0, ptr %5, align 4
  store i32 %1, ptr %6, align 4
  store i32 %2, ptr %7, align 4
  call void @llvm.lifetime.start.p0(i64 8, ptr %8) #16
  store ptr null, ptr %8, align 8, !annotation !4
  call void @llvm.lifetime.start.p0(i64 8, ptr %9) #16
  store ptr null, ptr %9, align 8, !annotation !4
  br label %11

11:                                               ; preds = %3
  %12 = call zeroext i1 @qemu_in_main_thread()
  br i1 %12, label %13, label %14

13:                                               ; preds = %11
  br label %15

14:                                               ; preds = %11
  call void @__assert_fail(ptr noundef @.str, ptr noundef @.str.1, i32 noundef 226, ptr noundef @__PRETTY_FUNCTION__.drive_get) #15
  unreachable

15:                                               ; preds = %13
  br label %16

16:                                               ; preds = %15
  br label %17

17:                                               ; preds = %16
  %18 = call ptr @blk_next(ptr noundef null)
  store ptr %18, ptr %8, align 8
  br label %19

19:                                               ; preds = %48, %17
  %20 = load ptr, ptr %8, align 8
  %21 = icmp ne ptr %20, null
  br i1 %21, label %22, label %51

22:                                               ; preds = %19
  %23 = load ptr, ptr %8, align 8
  %24 = call ptr @blk_legacy_dinfo(ptr noundef %23)
  store ptr %24, ptr %9, align 8
  %25 = load ptr, ptr %9, align 8
  %26 = icmp ne ptr %25, null
  br i1 %26, label %27, label %47

27:                                               ; preds = %22
  %28 = load ptr, ptr %9, align 8
  %29 = getelementptr inbounds nuw %struct.DriveInfo, ptr %28, i32 0, i32 0
  %30 = load i32, ptr %29, align 8
  %31 = load i32, ptr %5, align 4
  %32 = icmp eq i32 %30, %31
  br i1 %32, label %33, label %47

33:                                               ; preds = %27
  %34 = load ptr, ptr %9, align 8
  %35 = getelementptr inbounds nuw %struct.DriveInfo, ptr %34, i32 0, i32 1
  %36 = load i32, ptr %35, align 4
  %37 = load i32, ptr %6, align 4
  %38 = icmp eq i32 %36, %37
  br i1 %38, label %39, label %47

39:                                               ; preds = %33
  %40 = load ptr, ptr %9, align 8
  %41 = getelementptr inbounds nuw %struct.DriveInfo, ptr %40, i32 0, i32 2
  %42 = load i32, ptr %41, align 8
  %43 = load i32, ptr %7, align 4
  %44 = icmp eq i32 %42, %43
  br i1 %44, label %45, label %47

45:                                               ; preds = %39
  %46 = load ptr, ptr %9, align 8
  store ptr %46, ptr %4, align 8
  store i32 1, ptr %10, align 4
  br label %52

47:                                               ; preds = %39, %33, %27, %22
  br label %48

48:                                               ; preds = %47
  %49 = load ptr, ptr %8, align 8
  %50 = call ptr @blk_next(ptr noundef %49)
  store ptr %50, ptr %8, align 8
  br label %19, !llvm.loop !12

51:                                               ; preds = %19
  store ptr null, ptr %4, align 8
  store i32 1, ptr %10, align 4
  br label %52

52:                                               ; preds = %51, %45
  call void @llvm.lifetime.end.p0(i64 8, ptr %9) #16
  call void @llvm.lifetime.end.p0(i64 8, ptr %8) #16
  %53 = load ptr, ptr %4, align 8
  ret ptr %53
}