; Function Attrs: nounwind sspstrong uwtable
define dso_local ptr @drive_get(i32 noundef %0, i32 noundef %1, i32 noundef %2) local_unnamed_addr #0 {
  %4 = tail call zeroext i1 @qemu_in_main_thread() #14
  br i1 %4, label %6, label %5

5:                                                ; preds = %3
  tail call void @__assert_fail(ptr noundef nonnull @.str, ptr noundef nonnull @.str.1, i32 noundef 226, ptr noundef nonnull @__PRETTY_FUNCTION__.drive_get) #15
  unreachable

6:                                                ; preds = %3
  %7 = tail call ptr @blk_next(ptr noundef null) #14
  %.not14 = icmp eq ptr %7, null
  br i1 %.not14, label %._crit_edge, label %.lr.ph

.lr.ph:                                           ; preds = %6, %20
  %.015 = phi ptr [ %21, %20 ], [ %7, %6 ]
  %8 = tail call ptr @blk_legacy_dinfo(ptr noundef nonnull %.015) #14
  %.not13 = icmp eq ptr %8, null
  br i1 %.not13, label %20, label %9

9:                                                ; preds = %.lr.ph
  %10 = load i32, ptr %8, align 8
  %11 = icmp eq i32 %10, %0
  br i1 %11, label %12, label %20

12:                                               ; preds = %9
  %13 = getelementptr inbounds nuw i8, ptr %8, i64 4
  %14 = load i32, ptr %13, align 4
  %15 = icmp eq i32 %14, %1
  br i1 %15, label %16, label %20

16:                                               ; preds = %12
  %17 = getelementptr inbounds nuw i8, ptr %8, i64 8
  %18 = load i32, ptr %17, align 8
  %19 = icmp eq i32 %18, %2
  br i1 %19, label %._crit_edge, label %20

20:                                               ; preds = %.lr.ph, %9, %12, %16
  %21 = tail call ptr @blk_next(ptr noundef nonnull %.015) #14
  %.not = icmp eq ptr %21, null
  br i1 %.not, label %._crit_edge, label %.lr.ph, !llvm.loop !9

._crit_edge:                                      ; preds = %16, %20, %6
  %.011 = phi ptr [ null, %6 ], [ null, %20 ], [ %8, %16 ]
  ret ptr %.011
}